; ModuleID = 'source-C-CXX/12/1717.cpp'
source_filename = "source-C-CXX/12/1717.cpp"
target datalayout = "e-m:e-p270:32:32-p271:32:32-p272:64:64-i64:64-f80:128-n8:16:32:64-S128"
target triple = "x86_64-pc-linux-gnu"

%"class.std::ios_base::Init" = type { i8 }
%"class.std::basic_istream" = type { i32 (...)**, i64, %"class.std::basic_ios" }
%"class.std::basic_ios" = type { %"class.std::ios_base", %"class.std::basic_ostream"*, i8, i8, %"class.std::basic_streambuf"*, %"class.std::ctype"*, %"class.std::num_put"*, %"class.std::num_get"* }
%"class.std::ios_base" = type { i32 (...)**, i64, i64, i32, i32, i32, %"struct.std::ios_base::_Callback_list"*, %"struct.std::ios_base::_Words", [8 x %"struct.std::ios_base::_Words"], i32, %"struct.std::ios_base::_Words"*, %"class.std::locale" }
%"struct.std::ios_base::_Callback_list" = type { %"struct.std::ios_base::_Callback_list"*, void (i32, %"class.std::ios_base"*, i32)*, i32, i32 }
%"struct.std::ios_base::_Words" = type { i8*, i64 }
%"class.std::locale" = type { %"class.std::locale::_Impl"* }
%"class.std::locale::_Impl" = type { i32, %"class.std::locale::facet"**, i64, %"class.std::locale::facet"**, i8** }
%"class.std::locale::facet" = type <{ i32 (...)**, i32, [4 x i8] }>
%"class.std::basic_ostream" = type { i32 (...)**, %"class.std::basic_ios" }
%"class.std::basic_streambuf" = type { i32 (...)**, i8*, i8*, i8*, i8*, i8*, i8*, %"class.std::locale" }
%"class.std::ctype" = type <{ %"class.std::locale::facet.base", [4 x i8], %struct.__locale_struct*, i8, [7 x i8], i32*, i32*, i16*, i8, [256 x i8], [256 x i8], i8, [6 x i8] }>
%"class.std::locale::facet.base" = type <{ i32 (...)**, i32 }>
%struct.__locale_struct = type { [13 x %struct.__locale_data*], i16*, i32*, i32*, [13 x i8*] }
%struct.__locale_data = type opaque
%"class.std::num_put" = type { %"class.std::locale::facet.base", [4 x i8] }
%"class.std::num_get" = type { %"class.std::locale::facet.base", [4 x i8] }

@_ZStL8__ioinit = internal global %"class.std::ios_base::Init" zeroinitializer, align 1
@__dso_handle = external hidden global i8
@_ZSt3cin = external global %"class.std::basic_istream", align 8
@_ZSt4cout = external global %"class.std::basic_ostream", align 8
@llvm.global_ctors = appending global [1 x { i32, void ()*, i8* }] [{ i32, void ()*, i8* } { i32 65535, void ()* @_GLOBAL__sub_I_1717.cpp, i8* null }]

declare void @_ZNSt8ios_base4InitC1Ev(%"class.std::ios_base::Init"* nonnull align 1 dereferenceable(1)) unnamed_addr #0

; Function Attrs: nounwind
declare void @_ZNSt8ios_base4InitD1Ev(%"class.std::ios_base::Init"* nonnull align 1 dereferenceable(1)) unnamed_addr #1

; Function Attrs: nofree nounwind
declare i32 @__cxa_atexit(void (i8*)*, i8*, i8*) local_unnamed_addr #2

; Function Attrs: mustprogress norecurse sspstrong uwtable
define dso_local i32 @main() local_unnamed_addr #3 {
  %1 = alloca i8, align 1
  %2 = alloca [200000 x i32], align 16
  %3 = alloca i32, align 4
  %4 = bitcast [200000 x i32]* %2 to i8*
  call void @llvm.lifetime.start.p0i8(i64 800000, i8* nonnull %4) #7
  %5 = bitcast i32* %3 to i8*
  call void @llvm.lifetime.start.p0i8(i64 4, i8* nonnull %5) #7
  %6 = call nonnull align 8 dereferenceable(16) %"class.std::basic_istream"* @_ZNSirsERi(%"class.std::basic_istream"* nonnull align 8 dereferenceable(16) @_ZSt3cin, i32* nonnull align 4 dereferenceable(4) %3)
  %7 = load i32, i32* %3, align 4, !tbaa !5
  %8 = icmp sgt i32 %7, 0
  br i1 %8, label %12, label %104

9:                                                ; preds = %12
  %10 = getelementptr inbounds [200000 x i32], [200000 x i32]* %2, i64 0, i64 0
  %11 = icmp sgt i32 %17, 0
  br i1 %11, label %20, label %104

12:                                               ; preds = %0, %12
  %13 = phi i64 [ %16, %12 ], [ 0, %0 ]
  %14 = getelementptr inbounds [200000 x i32], [200000 x i32]* %2, i64 0, i64 %13
  %15 = call nonnull align 8 dereferenceable(16) %"class.std::basic_istream"* @_ZNSirsERi(%"class.std::basic_istream"* nonnull align 8 dereferenceable(16) @_ZSt3cin, i32* nonnull align 4 dereferenceable(4) %14)
  %16 = add nuw nsw i64 %13, 1
  %17 = load i32, i32* %3, align 4, !tbaa !5
  %18 = sext i32 %17 to i64
  %19 = icmp slt i64 %16, %18
  br i1 %19, label %12, label %9, !llvm.loop !9

20:                                               ; preds = %9, %99
  %21 = phi i64 [ %100, %99 ], [ 0, %9 ]
  %22 = phi i32 [ %101, %99 ], [ %17, %9 ]
  %23 = icmp sgt i32 %22, 0
  br i1 %23, label %24, label %83

24:                                               ; preds = %20
  %25 = getelementptr inbounds [200000 x i32], [200000 x i32]* %2, i64 0, i64 %21
  %26 = load i32, i32* %25, align 4, !tbaa !5
  %27 = zext i32 %22 to i64
  %28 = icmp ult i32 %22, 8
  br i1 %28, label %68, label %29

29:                                               ; preds = %24
  %30 = and i64 %27, 4294967288
  %31 = insertelement <4 x i32> poison, i32 %26, i32 0
  %32 = shufflevector <4 x i32> %31, <4 x i32> poison, <4 x i32> zeroinitializer
  %33 = insertelement <4 x i32> poison, i32 %26, i32 0
  %34 = shufflevector <4 x i32> %33, <4 x i32> poison, <4 x i32> zeroinitializer
  %35 = insertelement <4 x i64> poison, i64 %21, i32 0
  %36 = shufflevector <4 x i64> %35, <4 x i64> poison, <4 x i32> zeroinitializer
  %37 = insertelement <4 x i64> poison, i64 %21, i32 0
  %38 = shufflevector <4 x i64> %37, <4 x i64> poison, <4 x i32> zeroinitializer
  br label %39

39:                                               ; preds = %39, %29
  %40 = phi i64 [ 0, %29 ], [ %61, %39 ]
  %41 = phi <4 x i64> [ <i64 0, i64 1, i64 2, i64 3>, %29 ], [ %62, %39 ]
  %42 = phi <4 x i32> [ zeroinitializer, %29 ], [ %59, %39 ]
  %43 = phi <4 x i32> [ zeroinitializer, %29 ], [ %60, %39 ]
  %44 = add <4 x i64> %41, <i64 4, i64 4, i64 4, i64 4>
  %45 = getelementptr inbounds [200000 x i32], [200000 x i32]* %2, i64 0, i64 %40
  %46 = bitcast i32* %45 to <4 x i32>*
  %47 = load <4 x i32>, <4 x i32>* %46, align 16, !tbaa !5
  %48 = getelementptr inbounds i32, i32* %45, i64 4
  %49 = bitcast i32* %48 to <4 x i32>*
  %50 = load <4 x i32>, <4 x i32>* %49, align 16, !tbaa !5
  %51 = icmp eq <4 x i32> %32, %47
  %52 = icmp eq <4 x i32> %34, %50
  %53 = icmp ugt <4 x i64> %36, %41
  %54 = icmp ugt <4 x i64> %38, %44
  %55 = select <4 x i1> %51, <4 x i1> %53, <4 x i1> zeroinitializer
  %56 = select <4 x i1> %52, <4 x i1> %54, <4 x i1> zeroinitializer
  %57 = zext <4 x i1> %55 to <4 x i32>
  %58 = zext <4 x i1> %56 to <4 x i32>
  %59 = add <4 x i32> %42, %57
  %60 = add <4 x i32> %43, %58
  %61 = add nuw i64 %40, 8
  %62 = add <4 x i64> %41, <i64 8, i64 8, i64 8, i64 8>
  %63 = icmp eq i64 %61, %30
  br i1 %63, label %64, label %39, !llvm.loop !11

64:                                               ; preds = %39
  %65 = add <4 x i32> %60, %59
  %66 = call i32 @llvm.vector.reduce.add.v4i32(<4 x i32> %65)
  %67 = icmp eq i64 %30, %27
  br i1 %67, label %83, label %68

68:                                               ; preds = %24, %64
  %69 = phi i64 [ 0, %24 ], [ %30, %64 ]
  %70 = phi i32 [ 0, %24 ], [ %66, %64 ]
  br label %71

71:                                               ; preds = %68, %71
  %72 = phi i64 [ %81, %71 ], [ %69, %68 ]
  %73 = phi i32 [ %80, %71 ], [ %70, %68 ]
  %74 = getelementptr inbounds [200000 x i32], [200000 x i32]* %2, i64 0, i64 %72
  %75 = load i32, i32* %74, align 4, !tbaa !5
  %76 = icmp eq i32 %26, %75
  %77 = icmp ugt i64 %21, %72
  %78 = select i1 %76, i1 %77, i1 false
  %79 = zext i1 %78 to i32
  %80 = add nuw nsw i32 %73, %79
  %81 = add nuw nsw i64 %72, 1
  %82 = icmp eq i64 %81, %27
  br i1 %82, label %83, label %71, !llvm.loop !13

83:                                               ; preds = %71, %64, %20
  %84 = phi i32 [ 0, %20 ], [ %66, %64 ], [ %80, %71 ]
  %85 = icmp eq i32 %84, 0
  %86 = icmp eq i64 %21, 0
  %87 = select i1 %85, i1 %86, i1 false
  br i1 %87, label %88, label %91

88:                                               ; preds = %83
  %89 = load i32, i32* %10, align 16, !tbaa !5
  %90 = call nonnull align 8 dereferenceable(8) %"class.std::basic_ostream"* @_ZNSolsEi(%"class.std::basic_ostream"* nonnull align 8 dereferenceable(8) @_ZSt4cout, i32 %89)
  br label %99

91:                                               ; preds = %83
  %92 = icmp ne i64 %21, 0
  %93 = select i1 %85, i1 %92, i1 false
  br i1 %93, label %94, label %99

94:                                               ; preds = %91
  call void @llvm.lifetime.start.p0i8(i64 1, i8* nonnull %1)
  store i8 32, i8* %1, align 1, !tbaa !15
  %95 = call nonnull align 8 dereferenceable(8) %"class.std::basic_ostream"* @_ZSt16__ostream_insertIcSt11char_traitsIcEERSt13basic_ostreamIT_T0_ES6_PKS3_l(%"class.std::basic_ostream"* nonnull align 8 dereferenceable(8) @_ZSt4cout, i8* nonnull %1, i64 1)
  call void @llvm.lifetime.end.p0i8(i64 1, i8* nonnull %1)
  %96 = getelementptr inbounds [200000 x i32], [200000 x i32]* %2, i64 0, i64 %21
  %97 = load i32, i32* %96, align 4, !tbaa !5
  %98 = call nonnull align 8 dereferenceable(8) %"class.std::basic_ostream"* @_ZNSolsEi(%"class.std::basic_ostream"* nonnull align 8 dereferenceable(8) %95, i32 %97)
  br label %99

99:                                               ; preds = %88, %94, %91
  %100 = add nuw nsw i64 %21, 1
  %101 = load i32, i32* %3, align 4, !tbaa !5
  %102 = sext i32 %101 to i64
  %103 = icmp slt i64 %100, %102
  br i1 %103, label %20, label %104, !llvm.loop !16

104:                                              ; preds = %99, %0, %9
  call void @llvm.lifetime.end.p0i8(i64 4, i8* nonnull %5) #7
  call void @llvm.lifetime.end.p0i8(i64 800000, i8* nonnull %4) #7
  ret i32 0
}

; Function Attrs: argmemonly mustprogress nofree nosync nounwind willreturn
declare void @llvm.lifetime.start.p0i8(i64 immarg, i8* nocapture) #4

declare nonnull align 8 dereferenceable(16) %"class.std::basic_istream"* @_ZNSirsERi(%"class.std::basic_istream"* nonnull align 8 dereferenceable(16), i32* nonnull align 4 dereferenceable(4)) local_unnamed_addr #0

declare nonnull align 8 dereferenceable(8) %"class.std::basic_ostream"* @_ZNSolsEi(%"class.std::basic_ostream"* nonnull align 8 dereferenceable(8), i32) local_unnamed_addr #0

; Function Attrs: argmemonly mustprogress nofree nosync nounwind willreturn
declare void @llvm.lifetime.end.p0i8(i64 immarg, i8* nocapture) #4

declare nonnull align 8 dereferenceable(8) %"class.std::basic_ostream"* @_ZSt16__ostream_insertIcSt11char_traitsIcEERSt13basic_ostreamIT_T0_ES6_PKS3_l(%"class.std::basic_ostream"* nonnull align 8 dereferenceable(8), i8*, i64) local_unnamed_addr #0

; Function Attrs: sspstrong uwtable
define internal void @_GLOBAL__sub_I_1717.cpp() #5 section ".text.startup" {
  tail call void @_ZNSt8ios_base4InitC1Ev(%"class.std::ios_base::Init"* nonnull align 1 dereferenceable(1) @_ZStL8__ioinit)
  %1 = tail call i32 @__cxa_atexit(void (i8*)* bitcast (void (%"class.std::ios_base::Init"*)* @_ZNSt8ios_base4InitD1Ev to void (i8*)*), i8* getelementptr inbounds (%"class.std::ios_base::Init", %"class.std::ios_base::Init"* @_ZStL8__ioinit, i64 0, i32 0), i8* nonnull @__dso_handle) #7
  ret void
}

; Function Attrs: nofree nosync nounwind readnone willreturn
declare i32 @llvm.vector.reduce.add.v4i32(<4 x i32>) #6


!llvm.module.flags = !{!0, !1, !2, !3}
!llvm.ident = !{!4}

!0 = !{i32 1, !"wchar_size", i32 4}
!1 = !{i32 7, !"PIC Level", i32 2}
!2 = !{i32 7, !"PIE Level", i32 2}
!3 = !{i32 7, !"uwtable", i32 1}
!4 = !{!"clang version 13.0.0"}
!5 = !{!6, !6, i64 0}
!6 = !{!"int", !7, i64 0}
!7 = !{!"omnipotent char", !8, i64 0}
!8 = !{!"Simple C++ TBAA"}
!9 = distinct !{!9, !10}
!10 = !{!"llvm.loop.mustprogress"}
!11 = distinct !{!11, !10, !12}
!12 = !{!"llvm.loop.isvectorized", i32 1}
!13 = distinct !{!13, !10, !14, !12}
!14 = !{!"llvm.loop.unroll.runtime.disable"}
!15 = !{!7, !7, i64 0}
!16 = distinct !{!16, !10}
